; Function Attrs: mustprogress nounwind uwtable
define void @ucal_close_75(ptr noundef %cal) local_unnamed_addr #0 {
entry:
  %cmp.not = icmp eq ptr %cal, null
  br i1 %cmp.not, label %if.end, label %delete.notnull

delete.notnull:                                   ; preds = %entry
  %vtable = load ptr, ptr %cal, align 8
  %vfn = getelementptr inbounds i8, ptr %vtable, i64 8
  %0 = load ptr, ptr %vfn, align 8
  tail call void %0(ptr noundef nonnull align 8 dereferenceable(618) %cal) #11
  br label %if.end

if.end:                                           ; preds = %delete.notnull, %entry
  ret void
}